; Function Attrs: nounwind uwtable
define dso_local void @op_input_types(i32 noundef %0, ptr noundef writeonly captures(none) %1, ptr noundef writeonly captures(none) %2) local_unnamed_addr #0 {
  %4 = zext i32 %0 to i64
  %5 = tail call ptr @SearchSysCache1(i32 noundef 40, i64 noundef %4) #8
  %.not = icmp eq ptr %5, null
  br i1 %.not, label %6, label %9

6:                                                ; preds = %3
  %7 = tail call zeroext i1 @errstart_cold(i32 noundef 21, ptr noundef null) #9
  tail call void @llvm.assume(i1 %7)
  %8 = tail call i32 (ptr, ...) @errmsg_internal(ptr noundef nonnull @.str.9, i32 noundef %0) #8
  tail call void @errfinish(ptr noundef nonnull @.str.1, i32 noundef 1392, ptr noundef nonnull @__func__.op_input_types) #8
  unreachable

9:                                                ; preds = %3
  %10 = getelementptr i8, ptr %5, i64 16
  %.val = load ptr, ptr %10, align 8
  %11 = getelementptr inbounds nuw i8, ptr %.val, i64 22
  %12 = load i8, ptr %11, align 2
  %13 = zext i8 %12 to i64
  %14 = getelementptr inbounds nuw i8, ptr %.val, i64 %13
  %15 = getelementptr inbounds nuw i8, ptr %14, i64 80
  %16 = load i32, ptr %15, align 4
  store i32 %16, ptr %1, align 4
  %17 = getelementptr inbounds nuw i8, ptr %14, i64 84
  %18 = load i32, ptr %17, align 4
  store i32 %18, ptr %2, align 4
  tail call void @ReleaseSysCache(ptr noundef nonnull %5) #8
  ret void
}